; Function Attrs: mustprogress uwtable
define dso_local noundef zeroext i1 @_ZNK11FactPointTo8point_toEPK8Variable(ptr noundef nonnull readonly align 8 captures(none) dereferenceable(48) %0, ptr noundef %1) unnamed_addr #6 align 2 {
  %3 = getelementptr inbounds nuw i8, ptr %0, i64 24
  %4 = getelementptr inbounds nuw i8, ptr %0, i64 32
  %5 = load ptr, ptr %4, align 8, !tbaa !18
  %6 = load ptr, ptr %3, align 8, !tbaa !4
  %.not10.not = icmp eq ptr %5, %6
  br i1 %.not10.not, label %._crit_edge, label %.lr.ph

7:                                                ; preds = %19
  %8 = add nuw i64 %.0811, 1
  %9 = load ptr, ptr %4, align 8, !tbaa !18
  %10 = load ptr, ptr %3, align 8, !tbaa !4
  %11 = ptrtoint ptr %9 to i64
  %12 = ptrtoint ptr %10 to i64
  %13 = sub i64 %11, %12
  %14 = ashr exact i64 %13, 3
  %.not = icmp ult i64 %8, %14
  br i1 %.not, label %.lr.ph, label %._crit_edge, !llvm.loop !142

.lr.ph:                                           ; preds = %2, %7
  %15 = phi ptr [ %10, %7 ], [ %6, %2 ]
  %.0811 = phi i64 [ %8, %7 ], [ 0, %2 ]
  %16 = getelementptr inbounds nuw ptr, ptr %15, i64 %.0811
  %17 = load ptr, ptr %16, align 8, !tbaa !19
  %18 = tail call noundef zeroext i1 @_ZNK8Variable11loose_matchEPKS_(ptr noundef nonnull align 8 dereferenceable(200) %1, ptr noundef %17)
  br i1 %18, label %._crit_edge, label %19

19:                                               ; preds = %.lr.ph
  %20 = load ptr, ptr %3, align 8, !tbaa !4
  %21 = getelementptr inbounds nuw ptr, ptr %20, i64 %.0811
  %22 = load ptr, ptr %21, align 8, !tbaa !19
  %23 = tail call noundef zeroext i1 @_ZNK8Variable11loose_matchEPKS_(ptr noundef nonnull align 8 dereferenceable(200) %22, ptr noundef nonnull %1)
  br i1 %23, label %._crit_edge, label %7

._crit_edge:                                      ; preds = %7, %19, %.lr.ph, %2
  %.not.lcssa = phi i1 [ false, %2 ], [ true, %.lr.ph ], [ true, %19 ], [ false, %7 ]
  ret i1 %.not.lcssa
}